target datalayout = "e-m:e-p270:32:32-p271:32:32-p272:64:64-i64:64-i128:128-f80:128-n8:16:32:64-S128"
target triple = "x86_64-pc-linux-gnu"

%class.Handle = type { ptr }
%class.CodeInstaller = type <{ %class.Arena, ptr, i32, %class.CodeOffsets, i32, i32, i32, i32, i32, i32, i8, i8, [2 x i8], i32, [4 x i8], ptr, ptr, ptr, ptr, ptr, ptr, %class.ExceptionHandlerTable, %class.ImplicitExceptionTable, i8, [7 x i8] }>
%class.Arena = type { i8, i8, i64, ptr, ptr, ptr, ptr }
%class.CodeOffsets = type { [8 x i32] }
%class.ExceptionHandlerTable = type <{ ptr, i32, i32, %class.ReallocMark, [7 x i8] }>
%class.ReallocMark = type { i8 }
%class.ImplicitExceptionTable = type <{ i32, i32, ptr, %class.ReallocMark, [7 x i8] }>
%class.RelocationHolder = type { [40 x i8] }
%class.OopRecorder = type { %class.ValueRecorder, %class.ValueRecorder.0, ptr }
%class.ValueRecorder = type <{ ptr, ptr, ptr, ptr, i8, [7 x i8] }>
%class.ValueRecorder.0 = type <{ ptr, ptr, ptr, ptr, i8, [7 x i8] }>
%class.DataRelocation.base = type { %class.Relocation.base }
%class.Relocation.base = type <{ ptr, ptr, i32 }>
%class.Relocation = type <{ ptr, ptr, i32, [4 x i8] }>
%class.oop_Relocation = type { %class.DataRelocation.base, i32 }

@_ZTV10Relocation = external unnamed_addr constant { [11 x ptr] }, align 8
@_ZTV14oop_Relocation = external unnamed_addr constant { [11 x ptr] }, align 8

; Function Attrs: mustprogress nounwind uwtable
define linkonce_odr hidden void @_ZN10RelocationC2EN9relocInfo9relocTypeE(ptr noundef nonnull align 8 dereferenceable(20) %0, i32 noundef %1) unnamed_addr #1 comdat align 2 {
  %3 = alloca ptr, align 8
  %4 = alloca i32, align 4
  store ptr %0, ptr %3, align 8
  store i32 %1, ptr %4, align 4
  %5 = load ptr, ptr %3, align 8
  store ptr getelementptr inbounds inrange(-16, 72) ({ [11 x ptr] }, ptr @_ZTV10Relocation, i32 0, i32 0, i32 2), ptr %5, align 8
  %6 = getelementptr inbounds %class.Relocation, ptr %5, i32 0, i32 1
  store ptr null, ptr %6, align 8
  %7 = getelementptr inbounds %class.Relocation, ptr %5, i32 0, i32 2
  %8 = load i32, ptr %4, align 4
  store i32 %8, ptr %7, align 8
  ret void
}

; Function Attrs: mustprogress nounwind uwtable
define linkonce_odr hidden void @_ZN14DataRelocationC2EN9relocInfo9relocTypeE(ptr noundef nonnull align 8 dereferenceable(20) %0, i32 noundef %1) unnamed_addr #1 comdat align 2 {
  %3 = alloca ptr, align 8
  %4 = alloca i32, align 4
  store ptr %0, ptr %3, align 8
  store i32 %1, ptr %4, align 4
  %5 = load ptr, ptr %3, align 8
  %6 = load i32, ptr %4, align 4
  call void @_ZN10RelocationC2EN9relocInfo9relocTypeE(ptr noundef nonnull align 8 dereferenceable(20) %5, i32 noundef %6)
  store ptr getelementptr inbounds inrange(-16, 72) ({ [11 x ptr] }, ptr @_ZTV14DataRelocation, i32 0, i32 0, i32 2), ptr %5, align 8
  ret void
}

; Function Attrs: mustprogress nounwind uwtable
define linkonce_odr hidden void @_ZN14oop_RelocationC2Ei(ptr noundef nonnull align 8 dereferenceable(24) %0, i32 noundef %1) unnamed_addr #1 comdat align 2 {
  %3 = alloca ptr, align 8
  %4 = alloca i32, align 4
  store ptr %0, ptr %3, align 8
  store i32 %1, ptr %4, align 4
  %5 = load ptr, ptr %3, align 8
  call void @_ZN14DataRelocationC2EN9relocInfo9relocTypeE(ptr noundef nonnull align 8 dereferenceable(20) %5, i32 noundef 1)
  store ptr getelementptr inbounds inrange(-16, 72) ({ [11 x ptr] }, ptr @_ZTV14oop_Relocation, i32 0, i32 0, i32 2), ptr %5, align 8
  %6 = getelementptr inbounds %class.oop_Relocation, ptr %5, i32 0, i32 1
  %7 = load i32, ptr %4, align 4
  store i32 %7, ptr %6, align 4
  ret void
}

; Function Attrs: mustprogress nounwind uwtable
define linkonce_odr hidden void @_ZN16RelocationHolder18emplace_relocationI14oop_RelocationJiEEEvDpRKT0_(ptr noundef nonnull align 8 dereferenceable(40) %0, ptr noundef nonnull align 4 dereferenceable(4) %1) #1 comdat align 2 {
  %3 = alloca ptr, align 8
  %4 = alloca ptr, align 8
  %5 = alloca ptr, align 8
  store ptr %0, ptr %3, align 8
  store ptr %1, ptr %4, align 8
  %6 = load ptr, ptr %3, align 8
  %7 = getelementptr inbounds %class.RelocationHolder, ptr %6, i32 0, i32 0
  %8 = getelementptr inbounds [40 x i8], ptr %7, i64 0, i64 0
  %9 = load ptr, ptr %4, align 8
  %10 = load i32, ptr %9, align 4
  call void @_ZN14oop_RelocationC2Ei(ptr noundef nonnull align 8 dereferenceable(24) %8, i32 noundef %10)
  store ptr %8, ptr %5, align 8
  ret void
}

; Function Attrs: mustprogress nounwind uwtable
define linkonce_odr hidden void @_ZN16RelocationHolderC2I14oop_RelocationJiEEENS_9ConstructIT_EEDpRKT0_(ptr noundef nonnull align 8 dereferenceable(40) %0, ptr noundef nonnull align 4 dereferenceable(4) %1) unnamed_addr #1 comdat align 2 {
  %3 = alloca ptr, align 8
  %4 = alloca ptr, align 8
  store ptr %0, ptr %3, align 8
  store ptr %1, ptr %4, align 8
  %5 = load ptr, ptr %3, align 8
  %6 = load ptr, ptr %4, align 8
  call void @_ZN16RelocationHolder18emplace_relocationI14oop_RelocationJiEEEvDpRKT0_(ptr noundef nonnull align 8 dereferenceable(40) %5, ptr noundef nonnull align 4 dereferenceable(4) %6)
  ret void
}

; Function Attrs: mustprogress nounwind uwtable
define linkonce_odr hidden void @_ZN16RelocationHolder9constructI14oop_RelocationJiEEES_DpRKT0_(ptr dead_on_unwind noalias writable sret(%class.RelocationHolder) align 8 %0, ptr noundef nonnull align 4 dereferenceable(4) %1) #1 comdat align 2 {
  %3 = alloca ptr, align 8
  %4 = alloca ptr, align 8
  store ptr %0, ptr %3, align 8
  store ptr %1, ptr %4, align 8
  %5 = load ptr, ptr %4, align 8
  call void @_ZN16RelocationHolderC2I14oop_RelocationJiEEENS_9ConstructIT_EEDpRKT0_(ptr noundef nonnull align 8 dereferenceable(40) %0, ptr noundef nonnull align 4 dereferenceable(4) %5)
  ret void
}

; Function Attrs: mustprogress nounwind uwtable
define linkonce_odr hidden noundef i32 @_ZN13ValueRecorderIP8_jobjectE10find_indexES1_(ptr noundef nonnull align 8 dereferenceable(33) %0, ptr noundef %1) #1 comdat align 2 {
  %3 = alloca ptr, align 8
  %4 = alloca ptr, align 8
  %5 = alloca i32, align 4
  store ptr %0, ptr %3, align 8
  store ptr %1, ptr %4, align 8
  %6 = load ptr, ptr %3, align 8
  %7 = load ptr, ptr %4, align 8
  %8 = call noundef i32 @_ZN13ValueRecorderIP8_jobjectE16maybe_find_indexES1_(ptr noundef nonnull align 8 dereferenceable(33) %6, ptr noundef %7)
  store i32 %8, ptr %5, align 4
  %9 = load i32, ptr %5, align 4
  %10 = icmp slt i32 %9, 0
  br i1 %10, label %11, label %14

11:                                               ; preds = %2
  %12 = load ptr, ptr %4, align 8
  %13 = call noundef i32 @_ZN13ValueRecorderIP8_jobjectE10add_handleES1_b(ptr noundef nonnull align 8 dereferenceable(33) %6, ptr noundef %12, i1 noundef zeroext true)
  store i32 %13, ptr %5, align 4
  br label %14

14:                                               ; preds = %11, %2
  %15 = load i32, ptr %5, align 4
  ret i32 %15
}

; Function Attrs: mustprogress nounwind uwtable
define linkonce_odr hidden noundef ptr @_ZNK6Handle3objEv(ptr noundef nonnull align 8 dereferenceable(8) %0) #1 comdat align 2 {
  %2 = alloca ptr, align 8
  store ptr %0, ptr %2, align 8
  %3 = load ptr, ptr %2, align 8
  %4 = getelementptr inbounds %class.Handle, ptr %3, i32 0, i32 0
  %5 = load ptr, ptr %4, align 8
  %6 = icmp eq ptr %5, null
  br i1 %6, label %7, label %8

7:                                                ; preds = %1
  br label %12

8:                                                ; preds = %1
  %9 = getelementptr inbounds %class.Handle, ptr %3, i32 0, i32 0
  %10 = load ptr, ptr %9, align 8
  %11 = load ptr, ptr %10, align 8
  br label %12

12:                                               ; preds = %8, %7
  %13 = phi ptr [ null, %7 ], [ %11, %8 ]
  ret ptr %13
}

; Function Attrs: mustprogress nounwind uwtable
define linkonce_odr hidden void @_ZN14oop_Relocation4specEi(ptr dead_on_unwind noalias writable sret(%class.RelocationHolder) align 8 %0, i32 noundef %1) #1 comdat align 2 {
  %3 = alloca ptr, align 8
  %4 = alloca i32, align 4
  store ptr %0, ptr %3, align 8
  store i32 %1, ptr %4, align 4
  call void @_ZN16RelocationHolder9constructI14oop_RelocationJiEEES_DpRKT0_(ptr dead_on_unwind writable sret(%class.RelocationHolder) align 8 %0, ptr noundef nonnull align 4 dereferenceable(4) %4)
  ret void
}

; Function Attrs: mustprogress nounwind uwtable
define linkonce_odr hidden noundef i32 @_ZN11OopRecorder10find_indexEP8_jobject(ptr noundef nonnull align 8 dereferenceable(88) %0, ptr noundef %1) #1 comdat align 2 {
  %3 = alloca ptr, align 8
  %4 = alloca ptr, align 8
  store ptr %0, ptr %3, align 8
  store ptr %1, ptr %4, align 8
  %5 = load ptr, ptr %3, align 8
  %6 = getelementptr inbounds %class.OopRecorder, ptr %5, i32 0, i32 2
  %7 = load ptr, ptr %6, align 8
  %8 = icmp ne ptr %7, null
  br i1 %8, label %9, label %14

9:                                                ; preds = %2
  %10 = getelementptr inbounds %class.OopRecorder, ptr %5, i32 0, i32 2
  %11 = load ptr, ptr %10, align 8
  %12 = load ptr, ptr %4, align 8
  %13 = call noundef i32 @_ZN12ObjectLookup10find_indexEP8_jobjectP11OopRecorder(ptr noundef nonnull align 8 dereferenceable(28) %11, ptr noundef %12, ptr noundef %5)
  br label %18

14:                                               ; preds = %2
  %15 = getelementptr inbounds %class.OopRecorder, ptr %5, i32 0, i32 0
  %16 = load ptr, ptr %4, align 8
  %17 = call noundef i32 @_ZN13ValueRecorderIP8_jobjectE10find_indexES1_(ptr noundef nonnull align 8 dereferenceable(33) %15, ptr noundef %16)
  br label %18

18:                                               ; preds = %14, %9
  %19 = phi i32 [ %13, %9 ], [ %17, %14 ]
  ret i32 %19
}

; Function Attrs: mustprogress nounwind uwtable
define linkonce_odr hidden noundef ptr @_ZNK6HandleclEv(ptr noundef nonnull align 8 dereferenceable(8) %0) #1 comdat align 2 {
  %2 = alloca ptr, align 8
  store ptr %0, ptr %2, align 8
  %3 = load ptr, ptr %2, align 8
  %4 = call noundef ptr @_ZNK6Handle3objEv(ptr noundef nonnull align 8 dereferenceable(8) %3)
  ret ptr %4
}

; Function Attrs: mustprogress nounwind uwtable
define hidden void @_ZN13CodeInstaller16record_oop_patchEP25HotSpotCompiledCodeStreamPhhbP8JVMCIEnv(ptr noundef nonnull align 8 dereferenceable(225) %0, ptr noundef %1, ptr noundef %2, i8 noundef zeroext %3, i1 noundef zeroext %4, ptr noundef %5) #1 align 2 {
  %7 = alloca ptr, align 8
  %8 = alloca ptr, align 8
  %9 = alloca ptr, align 8
  %10 = alloca i8, align 1
  %11 = alloca i8, align 1
  %12 = alloca ptr, align 8
  %13 = alloca %class.Handle, align 8
  %14 = alloca ptr, align 8
  %15 = alloca i32, align 4
  %16 = alloca %class.RelocationHolder, align 8
  %17 = alloca %class.RelocationHolder, align 8
  store ptr %0, ptr %7, align 8
  store ptr %1, ptr %8, align 8
  store ptr %2, ptr %9, align 8
  store i8 %3, ptr %10, align 1
  %18 = zext i1 %4 to i8
  store i8 %18, ptr %11, align 1
  store ptr %5, ptr %12, align 8
  %19 = load ptr, ptr %7, align 8
  %20 = load ptr, ptr %8, align 8
  %21 = load i8, ptr %10, align 1
  %22 = load ptr, ptr %12, align 8
  %23 = call ptr @_ZN13CodeInstaller8read_oopEP25HotSpotCompiledCodeStreamhP8JVMCIEnv(ptr noundef nonnull align 8 dereferenceable(225) %19, ptr noundef %20, i8 noundef zeroext %21, ptr noundef %22)
  %24 = getelementptr inbounds %class.Handle, ptr %13, i32 0, i32 0
  store ptr %23, ptr %24, align 8
  %25 = load ptr, ptr %12, align 8
  %26 = call noundef zeroext i8 @_ZN8JVMCIEnv21has_pending_exceptionEv(ptr noundef nonnull align 8 dereferenceable(64) %25)
  %27 = icmp ne i8 %26, 0
  br i1 %27, label %28, label %29

28:                                               ; preds = %6
  br label %48

29:                                               ; preds = %6
  %30 = call noundef ptr @_ZNK6HandleclEv(ptr noundef nonnull align 8 dereferenceable(8) %13)
  %31 = call noundef ptr @_ZN10JNIHandles10make_localEP7oopDesc(ptr noundef %30)
  store ptr %31, ptr %14, align 8
  %32 = getelementptr inbounds %class.CodeInstaller, ptr %19, i32 0, i32 18
  %33 = load ptr, ptr %32, align 8
  %34 = load ptr, ptr %14, align 8
  %35 = call noundef i32 @_ZN11OopRecorder10find_indexEP8_jobject(ptr noundef nonnull align 8 dereferenceable(88) %33, ptr noundef %34)
  store i32 %35, ptr %15, align 4
  %36 = load i8, ptr %11, align 1
  %37 = trunc i8 %36 to i1
  br i1 %37, label %38, label %43

38:                                               ; preds = %29
  %39 = getelementptr inbounds %class.CodeInstaller, ptr %19, i32 0, i32 17
  %40 = load ptr, ptr %39, align 8
  %41 = load ptr, ptr %9, align 8
  %42 = load i32, ptr %15, align 4
  call void @_ZN14oop_Relocation4specEi(ptr dead_on_unwind writable sret(%class.RelocationHolder) align 8 %16, i32 noundef %42)
  call void @_ZN11CodeSection8relocateEPhRK16RelocationHolderi(ptr noundef nonnull align 8 dereferenceable(88) %40, ptr noundef %41, ptr noundef nonnull align 8 dereferenceable(40) %16, i32 noundef 1)
  br label %48

43:                                               ; preds = %29
  %44 = getelementptr inbounds %class.CodeInstaller, ptr %19, i32 0, i32 17
  %45 = load ptr, ptr %44, align 8
  %46 = load ptr, ptr %9, align 8
  %47 = load i32, ptr %15, align 4
  call void @_ZN14oop_Relocation4specEi(ptr dead_on_unwind writable sret(%class.RelocationHolder) align 8 %17, i32 noundef %47)
  call void @_ZN11CodeSection8relocateEPhRK16RelocationHolderi(ptr noundef nonnull align 8 dereferenceable(88) %45, ptr noundef %46, ptr noundef nonnull align 8 dereferenceable(40) %17, i32 noundef 0)
  br label %48

48:                                               ; preds = %43, %38, %28
  ret void
}