; Function Attrs: mustprogress nounwind uwtable
define hidden void @_ZN13CodeInstaller16record_oop_patchEP25HotSpotCompiledCodeStreamPhhbP8JVMCIEnv(ptr nocapture noundef nonnull readonly align 8 dereferenceable(225) %0, ptr nocapture noundef %1, ptr noundef %2, i8 noundef zeroext %3, i1 noundef zeroext %4, ptr noundef %5) local_unnamed_addr #2 align 2 {
  %7 = alloca %class.RelocationHolder, align 8
  %8 = alloca %class.RelocationHolder, align 8
  %9 = tail call ptr @_ZN13CodeInstaller8read_oopEP25HotSpotCompiledCodeStreamhP8JVMCIEnv(ptr noundef nonnull align 8 dereferenceable(225) %0, ptr noundef %1, i8 noundef zeroext %3, ptr noundef %5)
  %10 = tail call noundef zeroext i8 @_ZN8JVMCIEnv21has_pending_exceptionEv(ptr noundef nonnull align 8 dereferenceable(64) %5) #10
  %.not = icmp eq i8 %10, 0
  br i1 %.not, label %11, label %39

11:                                               ; preds = %6
  %12 = icmp eq ptr %9, null
  br i1 %12, label %_ZNK6HandleclEv.exit, label %13

13:                                               ; preds = %11
  %14 = load ptr, ptr %9, align 8
  br label %_ZNK6HandleclEv.exit

_ZNK6HandleclEv.exit:                             ; preds = %11, %13
  %15 = phi ptr [ %14, %13 ], [ null, %11 ]
  %16 = tail call noundef ptr @_ZN10JNIHandles10make_localEP7oopDesc(ptr noundef %15) #10
  %17 = getelementptr inbounds i8, ptr %0, i64 152
  %18 = load ptr, ptr %17, align 8
  %19 = getelementptr inbounds i8, ptr %18, i64 80
  %20 = load ptr, ptr %19, align 8
  %.not.i = icmp eq ptr %20, null
  br i1 %.not.i, label %23, label %21

21:                                               ; preds = %_ZNK6HandleclEv.exit
  %22 = tail call noundef i32 @_ZN12ObjectLookup10find_indexEP8_jobjectP11OopRecorder(ptr noundef nonnull align 8 dereferenceable(28) %20, ptr noundef %16, ptr noundef nonnull %18) #10
  br label %_ZN11OopRecorder10find_indexEP8_jobject.exit

23:                                               ; preds = %_ZNK6HandleclEv.exit
  %24 = tail call noundef i32 @_ZN13ValueRecorderIP8_jobjectE16maybe_find_indexES1_(ptr noundef nonnull align 8 dereferenceable(33) %18, ptr noundef %16) #10
  %25 = icmp slt i32 %24, 0
  br i1 %25, label %26, label %_ZN11OopRecorder10find_indexEP8_jobject.exit

26:                                               ; preds = %23
  %27 = tail call noundef i32 @_ZN13ValueRecorderIP8_jobjectE10add_handleES1_b(ptr noundef nonnull align 8 dereferenceable(33) %18, ptr noundef %16, i1 noundef zeroext true) #10
  br label %_ZN11OopRecorder10find_indexEP8_jobject.exit

_ZN11OopRecorder10find_indexEP8_jobject.exit:     ; preds = %21, %23, %26
  %28 = phi i32 [ %22, %21 ], [ %27, %26 ], [ %24, %23 ]
  %29 = getelementptr inbounds i8, ptr %0, i64 144
  %30 = load ptr, ptr %29, align 8
  br i1 %4, label %31, label %35

31:                                               ; preds = %_ZN11OopRecorder10find_indexEP8_jobject.exit
  %32 = getelementptr inbounds i8, ptr %7, i64 8
  store ptr null, ptr %32, align 8, !alias.scope !38
  %33 = getelementptr inbounds i8, ptr %7, i64 16
  store i32 1, ptr %33, align 8, !alias.scope !38
  store ptr getelementptr inbounds inrange(-16, 72) (i8, ptr @_ZTV14oop_Relocation, i64 16), ptr %7, align 8, !alias.scope !38
  %34 = getelementptr inbounds i8, ptr %7, i64 20
  store i32 %28, ptr %34, align 4, !alias.scope !38
  call void @_ZN11CodeSection8relocateEPhRK16RelocationHolderi(ptr noundef nonnull align 8 dereferenceable(88) %30, ptr noundef %2, ptr noundef nonnull align 8 dereferenceable(40) %7, i32 noundef 1) #10
  br label %39

35:                                               ; preds = %_ZN11OopRecorder10find_indexEP8_jobject.exit
  %36 = getelementptr inbounds i8, ptr %8, i64 8
  store ptr null, ptr %36, align 8, !alias.scope !43
  %37 = getelementptr inbounds i8, ptr %8, i64 16
  store i32 1, ptr %37, align 8, !alias.scope !43
  store ptr getelementptr inbounds inrange(-16, 72) (i8, ptr @_ZTV14oop_Relocation, i64 16), ptr %8, align 8, !alias.scope !43
  %38 = getelementptr inbounds i8, ptr %8, i64 20
  store i32 %28, ptr %38, align 4, !alias.scope !43
  call void @_ZN11CodeSection8relocateEPhRK16RelocationHolderi(ptr noundef nonnull align 8 dereferenceable(88) %30, ptr noundef %2, ptr noundef nonnull align 8 dereferenceable(40) %8, i32 noundef 0) #10
  br label %39

39:                                               ; preds = %6, %35, %31
  ret void
}